target datalayout = "e-m:e-p270:32:32-p271:32:32-p272:64:64-i64:64-i128:128-f80:128-n8:16:32:64-S128"
target triple = "x86_64-pc-linux-gnu"

%struct.PACKET = type { ptr, i64 }

@.str.25 = private unnamed_addr constant [29 x i8] c"../openssl/test/packettest.c\00", align 1
@.str.27 = private unnamed_addr constant [23 x i8] c"PACKET_remaining(&pkt)\00", align 1
@.str.32 = private unnamed_addr constant [2 x i8] c"0\00", align 1
@.str.68 = private unnamed_addr constant [26 x i8] c"PACKET_remaining(&subpkt)\00", align 1
@.str.84 = private unnamed_addr constant [4 x i8] c"len\00", align 1
@.str.120 = private unnamed_addr constant [29 x i8] c"PACKET_remaining(&exact_pkt)\00", align 1
@.str.121 = private unnamed_addr constant [33 x i8] c"PACKET_buf_init(&pkt, buf, 1024)\00", align 1
@.str.122 = private unnamed_addr constant [42 x i8] c"PACKET_buf_init(&exact_pkt, buf, len + 2)\00", align 1
@.str.123 = private unnamed_addr constant [43 x i8] c"PACKET_as_length_prefixed_2(&pkt, &subpkt)\00", align 1
@.str.124 = private unnamed_addr constant [5 x i8] c"1024\00", align 1
@.str.125 = private unnamed_addr constant [49 x i8] c"PACKET_as_length_prefixed_2(&exact_pkt, &subpkt)\00", align 1

; Function Attrs: inlinehint nounwind uwtable
define internal i32 @PACKET_peek_bytes(ptr noundef %0, ptr noundef %1, i64 noundef %2) #4 {
  %4 = alloca i32, align 4
  %5 = alloca ptr, align 8
  %6 = alloca ptr, align 8
  %7 = alloca i64, align 8
  store ptr %0, ptr %5, align 8, !tbaa !33
  store ptr %1, ptr %6, align 8, !tbaa !38
  store i64 %2, ptr %7, align 8, !tbaa !11
  %8 = load ptr, ptr %5, align 8, !tbaa !33
  %9 = call i64 @PACKET_remaining(ptr noundef %8)
  %10 = load i64, ptr %7, align 8, !tbaa !11
  %11 = icmp ult i64 %9, %10
  br i1 %11, label %12, label %13

12:                                               ; preds = %3
  store i32 0, ptr %4, align 4
  br label %18

13:                                               ; preds = %3
  %14 = load ptr, ptr %5, align 8, !tbaa !33
  %15 = getelementptr inbounds nuw %struct.PACKET, ptr %14, i32 0, i32 0
  %16 = load ptr, ptr %15, align 8, !tbaa !29
  %17 = load ptr, ptr %6, align 8, !tbaa !38
  store ptr %16, ptr %17, align 8, !tbaa !13
  store i32 1, ptr %4, align 4
  br label %18

18:                                               ; preds = %13, %12
  %19 = load i32, ptr %4, align 4
  ret i32 %19
}

; Function Attrs: inlinehint nounwind uwtable
define internal void @packet_forward(ptr noundef %0, i64 noundef %1) #4 {
  %3 = alloca ptr, align 8
  %4 = alloca i64, align 8
  store ptr %0, ptr %3, align 8, !tbaa !33
  store i64 %1, ptr %4, align 8, !tbaa !11
  %5 = load i64, ptr %4, align 8, !tbaa !11
  %6 = load ptr, ptr %3, align 8, !tbaa !33
  %7 = getelementptr inbounds nuw %struct.PACKET, ptr %6, i32 0, i32 0
  %8 = load ptr, ptr %7, align 8, !tbaa !29
  %9 = getelementptr inbounds nuw i8, ptr %8, i64 %5
  store ptr %9, ptr %7, align 8, !tbaa !29
  %10 = load i64, ptr %4, align 8, !tbaa !11
  %11 = load ptr, ptr %3, align 8, !tbaa !33
  %12 = getelementptr inbounds nuw %struct.PACKET, ptr %11, i32 0, i32 1
  %13 = load i64, ptr %12, align 8, !tbaa !31
  %14 = sub i64 %13, %10
  store i64 %14, ptr %12, align 8, !tbaa !31
  ret void
}

; Function Attrs: inlinehint nounwind uwtable
define internal i32 @PACKET_peek_net_2(ptr noundef %0, ptr noundef %1) #4 {
  %3 = alloca i32, align 4
  %4 = alloca ptr, align 8
  %5 = alloca ptr, align 8
  store ptr %0, ptr %4, align 8, !tbaa !33
  store ptr %1, ptr %5, align 8, !tbaa !34
  %6 = load ptr, ptr %4, align 8, !tbaa !33
  %7 = call i64 @PACKET_remaining(ptr noundef %6)
  %8 = icmp ult i64 %7, 2
  br i1 %8, label %9, label %10

9:                                                ; preds = %2
  store i32 0, ptr %3, align 4
  br label %27

10:                                               ; preds = %2
  %11 = load ptr, ptr %4, align 8, !tbaa !33
  %12 = getelementptr inbounds nuw %struct.PACKET, ptr %11, i32 0, i32 0
  %13 = load ptr, ptr %12, align 8, !tbaa !29
  %14 = load i8, ptr %13, align 1, !tbaa !8
  %15 = zext i8 %14 to i32
  %16 = shl i32 %15, 8
  %17 = load ptr, ptr %5, align 8, !tbaa !34
  store i32 %16, ptr %17, align 4, !tbaa !4
  %18 = load ptr, ptr %4, align 8, !tbaa !33
  %19 = getelementptr inbounds nuw %struct.PACKET, ptr %18, i32 0, i32 0
  %20 = load ptr, ptr %19, align 8, !tbaa !29
  %21 = getelementptr inbounds i8, ptr %20, i64 1
  %22 = load i8, ptr %21, align 1, !tbaa !8
  %23 = zext i8 %22 to i32
  %24 = load ptr, ptr %5, align 8, !tbaa !34
  %25 = load i32, ptr %24, align 4, !tbaa !4
  %26 = or i32 %25, %23
  store i32 %26, ptr %24, align 4, !tbaa !4
  store i32 1, ptr %3, align 4
  br label %27

27:                                               ; preds = %10, %9
  %28 = load i32, ptr %3, align 4
  ret i32 %28
}

; Function Attrs: inlinehint nounwind uwtable
define internal i32 @PACKET_get_bytes(ptr noundef %0, ptr noundef %1, i64 noundef %2) #4 {
  %4 = alloca i32, align 4
  %5 = alloca ptr, align 8
  %6 = alloca ptr, align 8
  %7 = alloca i64, align 8
  store ptr %0, ptr %5, align 8, !tbaa !33
  store ptr %1, ptr %6, align 8, !tbaa !38
  store i64 %2, ptr %7, align 8, !tbaa !11
  %8 = load ptr, ptr %5, align 8, !tbaa !33
  %9 = load ptr, ptr %6, align 8, !tbaa !38
  %10 = load i64, ptr %7, align 8, !tbaa !11
  %11 = call i32 @PACKET_peek_bytes(ptr noundef %8, ptr noundef %9, i64 noundef %10)
  %12 = icmp ne i32 %11, 0
  br i1 %12, label %14, label %13

13:                                               ; preds = %3
  store i32 0, ptr %4, align 4
  br label %17

14:                                               ; preds = %3
  %15 = load ptr, ptr %5, align 8, !tbaa !33
  %16 = load i64, ptr %7, align 8, !tbaa !11
  call void @packet_forward(ptr noundef %15, i64 noundef %16)
  store i32 1, ptr %4, align 4
  br label %17

17:                                               ; preds = %14, %13
  %18 = load i32, ptr %4, align 4
  ret i32 %18
}

; Function Attrs: inlinehint nounwind uwtable
define internal i32 @PACKET_get_net_2(ptr noundef %0, ptr noundef %1) #4 {
  %3 = alloca i32, align 4
  %4 = alloca ptr, align 8
  %5 = alloca ptr, align 8
  store ptr %0, ptr %4, align 8, !tbaa !33
  store ptr %1, ptr %5, align 8, !tbaa !34
  %6 = load ptr, ptr %4, align 8, !tbaa !33
  %7 = load ptr, ptr %5, align 8, !tbaa !34
  %8 = call i32 @PACKET_peek_net_2(ptr noundef %6, ptr noundef %7)
  %9 = icmp ne i32 %8, 0
  br i1 %9, label %11, label %10

10:                                               ; preds = %2
  store i32 0, ptr %3, align 4
  br label %13

11:                                               ; preds = %2
  %12 = load ptr, ptr %4, align 8, !tbaa !33
  call void @packet_forward(ptr noundef %12, i64 noundef 2)
  store i32 1, ptr %3, align 4
  br label %13

13:                                               ; preds = %11, %10
  %14 = load i32, ptr %3, align 4
  ret i32 %14
}

; Function Attrs: inlinehint nounwind uwtable
define internal i64 @PACKET_remaining(ptr noundef %0) #4 {
  %2 = alloca ptr, align 8
  store ptr %0, ptr %2, align 8, !tbaa !33
  %3 = load ptr, ptr %2, align 8, !tbaa !33
  %4 = getelementptr inbounds nuw %struct.PACKET, ptr %3, i32 0, i32 1
  %5 = load i64, ptr %4, align 8, !tbaa !31
  ret i64 %5
}

; Function Attrs: inlinehint nounwind uwtable
define internal i32 @PACKET_as_length_prefixed_2(ptr noundef %0, ptr noundef %1) #4 {
  %3 = alloca i32, align 4
  %4 = alloca ptr, align 8
  %5 = alloca ptr, align 8
  %6 = alloca i32, align 4
  %7 = alloca ptr, align 8
  %8 = alloca %struct.PACKET, align 8
  %9 = alloca i32, align 4
  store ptr %0, ptr %4, align 8, !tbaa !33
  store ptr %1, ptr %5, align 8, !tbaa !33
  call void @llvm.lifetime.start.p0(i64 4, ptr %6) #7
  call void @llvm.lifetime.start.p0(i64 8, ptr %7) #7
  call void @llvm.lifetime.start.p0(i64 16, ptr %8) #7
  %10 = load ptr, ptr %4, align 8, !tbaa !33
  call void @llvm.memcpy.p0.p0.i64(ptr align 8 %8, ptr align 8 %10, i64 16, i1 false), !tbaa.struct !40
  %11 = call i32 @PACKET_get_net_2(ptr noundef %8, ptr noundef %6)
  %12 = icmp ne i32 %11, 0
  br i1 %12, label %13, label %21

13:                                               ; preds = %2
  %14 = load i32, ptr %6, align 4, !tbaa !4
  %15 = zext i32 %14 to i64
  %16 = call i32 @PACKET_get_bytes(ptr noundef %8, ptr noundef %7, i64 noundef %15)
  %17 = icmp ne i32 %16, 0
  br i1 %17, label %18, label %21

18:                                               ; preds = %13
  %19 = call i64 @PACKET_remaining(ptr noundef %8)
  %20 = icmp ne i64 %19, 0
  br i1 %20, label %21, label %22

21:                                               ; preds = %18, %13, %2
  store i32 0, ptr %3, align 4
  store i32 1, ptr %9, align 4
  br label %31

22:                                               ; preds = %18
  %23 = load ptr, ptr %4, align 8, !tbaa !33
  call void @llvm.memcpy.p0.p0.i64(ptr align 8 %23, ptr align 8 %8, i64 16, i1 false), !tbaa.struct !40
  %24 = load ptr, ptr %7, align 8, !tbaa !13
  %25 = load ptr, ptr %5, align 8, !tbaa !33
  %26 = getelementptr inbounds nuw %struct.PACKET, ptr %25, i32 0, i32 0
  store ptr %24, ptr %26, align 8, !tbaa !29
  %27 = load i32, ptr %6, align 4, !tbaa !4
  %28 = zext i32 %27 to i64
  %29 = load ptr, ptr %5, align 8, !tbaa !33
  %30 = getelementptr inbounds nuw %struct.PACKET, ptr %29, i32 0, i32 1
  store i64 %28, ptr %30, align 8, !tbaa !31
  store i32 1, ptr %3, align 4
  store i32 1, ptr %9, align 4
  br label %31

31:                                               ; preds = %22, %21
  call void @llvm.lifetime.end.p0(i64 16, ptr %8) #7
  call void @llvm.lifetime.end.p0(i64 8, ptr %7) #7
  call void @llvm.lifetime.end.p0(i64 4, ptr %6) #7
  %32 = load i32, ptr %3, align 4
  ret i32 %32
}

; Function Attrs: inlinehint nounwind uwtable
define internal i32 @PACKET_buf_init(ptr noundef %0, ptr noundef %1, i64 noundef %2) #4 {
  %4 = alloca i32, align 4
  %5 = alloca ptr, align 8
  %6 = alloca ptr, align 8
  %7 = alloca i64, align 8
  store ptr %0, ptr %5, align 8, !tbaa !33
  store ptr %1, ptr %6, align 8, !tbaa !13
  store i64 %2, ptr %7, align 8, !tbaa !11
  %8 = load i64, ptr %7, align 8, !tbaa !11
  %9 = icmp ugt i64 %8, 9223372036854775807
  br i1 %9, label %10, label %11

10:                                               ; preds = %3
  store i32 0, ptr %4, align 4
  br label %18

11:                                               ; preds = %3
  %12 = load ptr, ptr %6, align 8, !tbaa !13
  %13 = load ptr, ptr %5, align 8, !tbaa !33
  %14 = getelementptr inbounds nuw %struct.PACKET, ptr %13, i32 0, i32 0
  store ptr %12, ptr %14, align 8, !tbaa !29
  %15 = load i64, ptr %7, align 8, !tbaa !11
  %16 = load ptr, ptr %5, align 8, !tbaa !33
  %17 = getelementptr inbounds nuw %struct.PACKET, ptr %16, i32 0, i32 1
  store i64 %15, ptr %17, align 8, !tbaa !31
  store i32 1, ptr %4, align 4
  br label %18

18:                                               ; preds = %11, %10
  %19 = load i32, ptr %4, align 4
  ret i32 %19
}

; Function Attrs: nounwind uwtable
define internal i32 @test_PACKET_as_length_prefixed_2() #0 {
  %1 = alloca i32, align 4
  %2 = alloca [1024 x i8], align 16
  %3 = alloca i64, align 8
  %4 = alloca i32, align 4
  %5 = alloca %struct.PACKET, align 8
  %6 = alloca %struct.PACKET, align 8
  %7 = alloca %struct.PACKET, align 8
  %8 = alloca i32, align 4
  call void @llvm.lifetime.start.p0(i64 1024, ptr %2) #7
  call void @llvm.lifetime.start.p0(i64 8, ptr %3) #7
  store i64 516, ptr %3, align 8, !tbaa !11
  call void @llvm.lifetime.start.p0(i64 4, ptr %4) #7
  call void @llvm.lifetime.start.p0(i64 16, ptr %5) #7
  call void @llvm.lifetime.start.p0(i64 16, ptr %6) #7
  call void @llvm.lifetime.start.p0(i64 16, ptr %7) #7
  call void @llvm.memset.p0.i64(ptr align 8 %7, i8 0, i64 16, i1 false)
  store i32 1, ptr %4, align 4, !tbaa !4
  br label %9

9:                                                ; preds = %21, %0
  %10 = load i32, ptr %4, align 4, !tbaa !4
  %11 = icmp ule i32 %10, 1024
  br i1 %11, label %12, label %24

12:                                               ; preds = %9
  %13 = load i32, ptr %4, align 4, !tbaa !4
  %14 = mul i32 %13, 2
  %15 = and i32 %14, 255
  %16 = trunc i32 %15 to i8
  %17 = load i32, ptr %4, align 4, !tbaa !4
  %18 = sub i32 %17, 1
  %19 = zext i32 %18 to i64
  %20 = getelementptr inbounds nuw [1024 x i8], ptr %2, i64 0, i64 %19
  store i8 %16, ptr %20, align 1, !tbaa !8
  br label %21

21:                                               ; preds = %12
  %22 = load i32, ptr %4, align 4, !tbaa !4
  %23 = add i32 %22, 1
  store i32 %23, ptr %4, align 4, !tbaa !4
  br label %9, !llvm.loop !20

24:                                               ; preds = %9
  %25 = getelementptr inbounds [1024 x i8], ptr %2, i64 0, i64 0
  %26 = call i32 @PACKET_buf_init(ptr noundef %5, ptr noundef %25, i64 noundef 1024)
  %27 = icmp ne i32 %26, 0
  %28 = zext i1 %27 to i32
  %29 = call i32 @test_true(ptr noundef @.str.25, i32 noundef 456, ptr noundef @.str.121, i32 noundef %28)
  %30 = icmp ne i32 %29, 0
  br i1 %30, label %31, label %62

31:                                               ; preds = %24
  %32 = getelementptr inbounds [1024 x i8], ptr %2, i64 0, i64 0
  %33 = call i32 @PACKET_buf_init(ptr noundef %6, ptr noundef %32, i64 noundef 518)
  %34 = icmp ne i32 %33, 0
  %35 = zext i1 %34 to i32
  %36 = call i32 @test_true(ptr noundef @.str.25, i32 noundef 457, ptr noundef @.str.122, i32 noundef %35)
  %37 = icmp ne i32 %36, 0
  br i1 %37, label %38, label %62

38:                                               ; preds = %31
  %39 = call i32 @PACKET_as_length_prefixed_2(ptr noundef %5, ptr noundef %7)
  %40 = icmp ne i32 %39, 0
  %41 = zext i1 %40 to i32
  %42 = call i32 @test_false(ptr noundef @.str.25, i32 noundef 458, ptr noundef @.str.123, i32 noundef %41)
  %43 = icmp ne i32 %42, 0
  br i1 %43, label %44, label %62

44:                                               ; preds = %38
  %45 = call i64 @PACKET_remaining(ptr noundef %5)
  %46 = call i32 @test_size_t_eq(ptr noundef @.str.25, i32 noundef 459, ptr noundef @.str.27, ptr noundef @.str.124, i64 noundef %45, i64 noundef 1024)
  %47 = icmp ne i32 %46, 0
  br i1 %47, label %48, label %62

48:                                               ; preds = %44
  %49 = call i32 @PACKET_as_length_prefixed_2(ptr noundef %6, ptr noundef %7)
  %50 = icmp ne i32 %49, 0
  %51 = zext i1 %50 to i32
  %52 = call i32 @test_true(ptr noundef @.str.25, i32 noundef 460, ptr noundef @.str.125, i32 noundef %51)
  %53 = icmp ne i32 %52, 0
  br i1 %53, label %54, label %62

54:                                               ; preds = %48
  %55 = call i64 @PACKET_remaining(ptr noundef %6)
  %56 = call i32 @test_size_t_eq(ptr noundef @.str.25, i32 noundef 461, ptr noundef @.str.120, ptr noundef @.str.32, i64 noundef %55, i64 noundef 0)
  %57 = icmp ne i32 %56, 0
  br i1 %57, label %58, label %62

58:                                               ; preds = %54
  %59 = call i64 @PACKET_remaining(ptr noundef %7)
  %60 = call i32 @test_size_t_eq(ptr noundef @.str.25, i32 noundef 462, ptr noundef @.str.68, ptr noundef @.str.84, i64 noundef %59, i64 noundef 516)
  %61 = icmp ne i32 %60, 0
  br i1 %61, label %63, label %62

62:                                               ; preds = %58, %54, %48, %44, %38, %31, %24
  store i32 0, ptr %1, align 4
  store i32 1, ptr %8, align 4
  br label %64

63:                                               ; preds = %58
  store i32 1, ptr %1, align 4
  store i32 1, ptr %8, align 4
  br label %64

64:                                               ; preds = %63, %62
  call void @llvm.lifetime.end.p0(i64 16, ptr %7) #7
  call void @llvm.lifetime.end.p0(i64 16, ptr %6) #7
  call void @llvm.lifetime.end.p0(i64 16, ptr %5) #7
  call void @llvm.lifetime.end.p0(i64 4, ptr %4) #7
  call void @llvm.lifetime.end.p0(i64 8, ptr %3) #7
  call void @llvm.lifetime.end.p0(i64 1024, ptr %2) #7
  %65 = load i32, ptr %1, align 4
  ret i32 %65
}