; Function Attrs: nounwind uwtable
define internal range(i32 0, 2) i32 @test_PACKET_as_length_prefixed_2() #0 {
  %1 = alloca [1024 x i8], align 16
  call void @llvm.lifetime.start.p0(i64 1024, ptr nonnull %1) #6
  br label %2

2:                                                ; preds = %0, %2
  %indvars.iv = phi i64 [ 1, %0 ], [ %indvars.iv.next, %2 ]
  %.0.tr = trunc i64 %indvars.iv to i8
  %3 = shl i8 %.0.tr, 1
  %4 = add nsw i64 %indvars.iv, -1
  %5 = getelementptr inbounds nuw [1024 x i8], ptr %1, i64 0, i64 %4
  store i8 %3, ptr %5, align 1, !tbaa !4
  %indvars.iv.next = add nuw nsw i64 %indvars.iv, 1
  %exitcond.not = icmp eq i64 %indvars.iv.next, 1025
  br i1 %exitcond.not, label %6, label %2, !llvm.loop !12

6:                                                ; preds = %2
  %7 = tail call i32 @test_true(ptr noundef nonnull @.str.25, i32 noundef 456, ptr noundef nonnull @.str.121, i32 noundef 1) #6
  %.not = icmp eq i32 %7, 0
  br i1 %.not, label %25, label %8

8:                                                ; preds = %6
  %9 = tail call i32 @test_true(ptr noundef nonnull @.str.25, i32 noundef 457, ptr noundef nonnull @.str.122, i32 noundef 1) #6
  %.not6 = icmp eq i32 %9, 0
  br i1 %.not6, label %25, label %PACKET_as_length_prefixed_2.exit

PACKET_as_length_prefixed_2.exit:                 ; preds = %8
  %10 = load i8, ptr %1, align 16, !tbaa !4
  %11 = zext i8 %10 to i64
  %12 = shl nuw nsw i64 %11, 8
  %13 = getelementptr inbounds nuw i8, ptr %1, i64 1
  %14 = load i8, ptr %13, align 1, !tbaa !4
  %15 = zext i8 %14 to i64
  %16 = or disjoint i64 %12, %15
  %.not5.i = icmp eq i64 %16, 1022
  %.sroa.5.0 = select i1 %.not5.i, i64 1022, i64 0
  %.0.i = zext i1 %.not5.i to i32
  %17 = tail call i32 @test_false(ptr noundef nonnull @.str.25, i32 noundef 458, ptr noundef nonnull @.str.123, i32 noundef %.0.i) #6
  %.not7 = icmp eq i32 %17, 0
  br i1 %.not7, label %25, label %18

18:                                               ; preds = %PACKET_as_length_prefixed_2.exit
  %.sroa.524.0 = select i1 %.not5.i, i64 0, i64 1024
  %19 = tail call i32 @test_size_t_eq(ptr noundef nonnull @.str.25, i32 noundef 459, ptr noundef nonnull @.str.27, ptr noundef nonnull @.str.124, i64 noundef %.sroa.524.0, i64 noundef 1024) #6
  %.not8 = icmp eq i32 %19, 0
  br i1 %.not8, label %25, label %PACKET_as_length_prefixed_2.exit19

PACKET_as_length_prefixed_2.exit19:               ; preds = %18
  %.not5.i17 = icmp eq i64 %16, 516
  %.sroa.5.1 = select i1 %.not5.i17, i64 516, i64 %.sroa.5.0
  %.0.i18 = zext i1 %.not5.i17 to i32
  %20 = tail call i32 @test_true(ptr noundef nonnull @.str.25, i32 noundef 460, ptr noundef nonnull @.str.125, i32 noundef %.0.i18) #6
  %.not9 = icmp eq i32 %20, 0
  br i1 %.not9, label %25, label %21

21:                                               ; preds = %PACKET_as_length_prefixed_2.exit19
  %.sroa.521.0 = select i1 %.not5.i17, i64 0, i64 518
  %22 = tail call i32 @test_size_t_eq(ptr noundef nonnull @.str.25, i32 noundef 461, ptr noundef nonnull @.str.120, ptr noundef nonnull @.str.32, i64 noundef %.sroa.521.0, i64 noundef 0) #6
  %.not10 = icmp eq i32 %22, 0
  br i1 %.not10, label %25, label %23

23:                                               ; preds = %21
  %24 = tail call i32 @test_size_t_eq(ptr noundef nonnull @.str.25, i32 noundef 462, ptr noundef nonnull @.str.68, ptr noundef nonnull @.str.84, i64 noundef %.sroa.5.1, i64 noundef 516) #6
  %.not11 = icmp ne i32 %24, 0
  %spec.select = zext i1 %.not11 to i32
  br label %25

25:                                               ; preds = %23, %6, %8, %PACKET_as_length_prefixed_2.exit, %18, %PACKET_as_length_prefixed_2.exit19, %21
  %.05 = phi i32 [ 0, %21 ], [ 0, %PACKET_as_length_prefixed_2.exit19 ], [ 0, %18 ], [ 0, %PACKET_as_length_prefixed_2.exit ], [ 0, %8 ], [ 0, %6 ], [ %spec.select, %23 ]
  call void @llvm.lifetime.end.p0(i64 1024, ptr nonnull %1) #6
  ret i32 %.05
}